; Function Attrs: mustprogress uwtable
define dso_local void @_ZN4Luau12TypeChecker25visitEPKNS_11AstTypeListE(ptr noundef nonnull align 8 dereferenceable(784) %0, ptr noundef readonly captures(none) %1) local_unnamed_addr #5 align 2 {
  %3 = load ptr, ptr %1, align 8, !tbaa !603
  %4 = getelementptr inbounds nuw i8, ptr %1, i64 8
  %5 = load i64, ptr %4, align 8, !tbaa !605
  %6 = getelementptr inbounds nuw ptr, ptr %3, i64 %5
  %.not18 = icmp eq i64 %5, 0
  br i1 %.not18, label %._crit_edge, label %.lr.ph

._crit_edge:                                      ; preds = %.lr.ph, %2
  %7 = getelementptr inbounds nuw i8, ptr %1, i64 16
  %8 = load ptr, ptr %7, align 8, !tbaa !783
  %.not12 = icmp eq ptr %8, null
  br i1 %.not12, label %_ZN4Luau12TypeChecker25visitEPNS_11AstTypePackE.exit, label %tailrecurse.i

.lr.ph:                                           ; preds = %2, %.lr.ph
  %.019 = phi ptr [ %10, %.lr.ph ], [ %3, %2 ]
  %9 = load ptr, ptr %.019, align 8, !tbaa !422
  tail call void @_ZN4Luau12TypeChecker25visitEPNS_7AstTypeE(ptr noundef nonnull align 8 dereferenceable(784) %0, ptr noundef %9)
  %10 = getelementptr inbounds nuw i8, ptr %.019, i64 8
  %.not = icmp eq ptr %10, %6
  br i1 %.not, label %._crit_edge, label %.lr.ph

tailrecurse.i:                                    ; preds = %._crit_edge, %._crit_edge.i
  %.tr23.i = phi ptr [ %21, %._crit_edge.i ], [ %8, %._crit_edge ]
  %11 = getelementptr inbounds nuw i8, ptr %.tr23.i, i64 8
  %12 = load i32, ptr %11, align 8, !tbaa !244
  %13 = load i32, ptr @_ZN4Luau7AstRttiINS_19AstTypePackExplicitEE5valueE, align 4, !tbaa !4
  %.not13 = icmp eq i32 %12, %13
  br i1 %.not13, label %14, label %24

14:                                               ; preds = %tailrecurse.i
  %15 = getelementptr inbounds nuw i8, ptr %.tr23.i, i64 32
  %16 = load ptr, ptr %15, align 8, !tbaa !603
  %17 = getelementptr inbounds nuw i8, ptr %.tr23.i, i64 40
  %18 = load i64, ptr %17, align 8, !tbaa !605
  %19 = getelementptr inbounds nuw ptr, ptr %16, i64 %18
  %.not.i26.i = icmp eq i64 %18, 0
  br i1 %.not.i26.i, label %._crit_edge.i, label %.lr.ph.i

._crit_edge.i:                                    ; preds = %.lr.ph.i, %14
  %20 = getelementptr inbounds nuw i8, ptr %.tr23.i, i64 48
  %21 = load ptr, ptr %20, align 8, !tbaa !606
  %.not12.i.i = icmp eq ptr %21, null
  br i1 %.not12.i.i, label %_ZN4Luau12TypeChecker25visitEPNS_11AstTypePackE.exit, label %tailrecurse.i

.lr.ph.i:                                         ; preds = %14, %.lr.ph.i
  %.0.i27.i = phi ptr [ %23, %.lr.ph.i ], [ %16, %14 ]
  %22 = load ptr, ptr %.0.i27.i, align 8, !tbaa !422
  tail call void @_ZN4Luau12TypeChecker25visitEPNS_7AstTypeE(ptr noundef nonnull align 8 dereferenceable(784) %0, ptr noundef %22) #38
  %23 = getelementptr inbounds nuw i8, ptr %.0.i27.i, i64 8
  %.not.i.i = icmp eq ptr %23, %19
  br i1 %.not.i.i, label %._crit_edge.i, label %.lr.ph.i

24:                                               ; preds = %tailrecurse.i
  %25 = load i32, ptr @_ZN4Luau7AstRttiINS_19AstTypePackVariadicEE5valueE, align 4, !tbaa !4
  %.not14 = icmp eq i32 %12, %25
  br i1 %.not14, label %26, label %29

26:                                               ; preds = %24
  %27 = getelementptr inbounds nuw i8, ptr %.tr23.i, i64 32
  %28 = load ptr, ptr %27, align 8, !tbaa !610
  tail call void @_ZN4Luau12TypeChecker25visitEPNS_7AstTypeE(ptr noundef nonnull align 8 dereferenceable(784) %0, ptr noundef %28) #38
  br label %_ZN4Luau12TypeChecker25visitEPNS_11AstTypePackE.exit

29:                                               ; preds = %24
  %30 = load i32, ptr @_ZN4Luau7AstRttiINS_18AstTypePackGenericEE5valueE, align 4, !tbaa !4
  %.not15 = icmp eq i32 %12, %30
  br i1 %.not15, label %31, label %_ZN4Luau12TypeChecker25visitEPNS_11AstTypePackE.exit

31:                                               ; preds = %29
  tail call void @_ZN4Luau12TypeChecker25visitEPNS_18AstTypePackGenericE(ptr noundef nonnull align 8 dereferenceable(784) %0, ptr noundef nonnull %.tr23.i)
  br label %_ZN4Luau12TypeChecker25visitEPNS_11AstTypePackE.exit

_ZN4Luau12TypeChecker25visitEPNS_11AstTypePackE.exit: ; preds = %._crit_edge.i, %31, %29, %26, %._crit_edge
  ret void
}